(lp0
S'T'
p1
aS'B'
p2
aS'J'
p3
aS'I'
p4
aS'E'
p5
aS'F'
p6
aS'A'
p7
aS'Y'
p8
aS'O'
p9
aS'D'
p10
ag4
aS'Q'
p11
ag10
ag1
aS'X'
p12
ag3
ag9
aS'H'
p13
ag7
aS'N'
p14
aS'L'
p15
aS'P'
p16
ag11
aS'M'
p17
ag10
ag5
ag13
aS'Z'
p18
aS'C'
p19
ag2
aS'U'
p20
ag14
ag5
ag10
ag18
ag1
ag12
ag4
ag10
ag1
aS'K'
p21
ag19
aS'G'
p22
ag22
aS'W'
p23
ag16
ag6
ag19
aS'S'
p24
ag15
ag20
ag5
aS'V'
p25
ag11
ag20
aS'R'
p26
ag25
ag3
ag14
ag18
ag17
ag11
ag19
ag21
ag2
ag11
ag18
ag1
ag14
ag25
ag13
ag24
ag20
ag23
ag16
ag26
ag11
ag5
ag12
ag1
ag12
ag8
ag21
ag22
ag12
ag17
ag2
ag10
ag17
ag4
ag1
ag11
ag6
ag5
ag3
ag7
ag13
ag22
ag14
ag6
ag23
ag26
ag8
ag11
ag3
ag8
ag6
ag12
ag5
ag10
ag15
ag23
ag23
ag14
ag10
ag8
ag12
ag20
ag10
ag22
ag25
ag22
ag12
ag20
ag3
ag2
ag2
ag7
ag3
ag22
ag22
ag18
ag26
ag2
ag1
ag17
ag2
ag18
ag2
ag18
ag14
ag9
ag23
ag11
ag16
ag19
ag17
ag4
ag2
ag12
ag18
ag7
ag11
ag6
ag15
ag2
ag17
ag2
ag11
ag14
ag15
ag15
ag2
ag12
ag14
ag5
ag26
ag6
ag8
ag14
ag1
ag2
ag7
ag12
ag13
ag3
ag6
ag8
ag16
ag14
ag9
ag11
ag15
ag13
ag19
ag14
ag13
ag6
ag16
ag9
ag1
ag21
ag17
ag22
ag4
ag12
ag10
ag16
ag1
ag7
ag26
ag3
ag6
ag18
ag22
ag17
ag3
ag11
ag10
ag7
ag22
ag2
ag6
ag22
ag1
ag2
ag13
ag21
ag14
ag16
ag25
ag7
ag25
ag9
ag21
ag22
ag2
ag5
ag13
ag10
ag15
ag5
ag15
ag18
ag6
ag3
ag25
ag14
ag7
ag6
ag21
ag9
ag13
ag6
ag15
ag2
ag10
ag25
ag9
ag24
ag12
ag24
ag15
ag10
ag12
ag1
ag10
ag10
ag8
ag3
ag9
ag20
ag15
ag3
ag11
ag9
ag25
ag2
ag9
ag12
ag26
ag7
ag14
ag20
ag8
ag13
ag23
ag13
ag4
ag3
ag19
ag19
ag13
ag12
ag12
ag4
ag24
ag20
ag7
ag26
ag22
ag20
ag13
ag2
ag3
ag16
ag9
ag21
ag1
ag25
ag20
ag18
ag19
ag12
ag6
ag16
ag18
ag8
ag6
ag11
ag1
ag13
ag5
ag6
ag13
ag9
ag2
ag23
ag17
ag25
ag13
ag1
ag21
ag25
ag7
ag23
ag19
ag8
ag2
ag9
ag3
ag23
ag15
ag5
ag21
ag24
ag6
ag20
ag22
ag11
ag23
ag20
ag7
ag12
ag8
ag10
ag13
ag3
ag18
ag2
ag5
ag21
ag4
ag17
ag22
ag19
ag26
ag6
ag5
ag6
ag17
ag26
ag15
ag20
ag10
ag8
ag16
ag14
ag2
ag19
ag4
ag7
ag11
ag14
ag10
ag14
ag24
ag23
ag16
ag6
ag4
ag19
ag1
ag23
ag15
ag14
ag11
ag13
ag5
ag2
ag18
ag4
ag10
ag20
ag8
ag19
ag5
ag24
ag13
ag7
ag19
ag25
ag10
ag16
ag4
ag12
ag22
ag16
ag26
ag17
ag12
ag15
ag19
ag21
ag16
ag21
ag25
ag10
ag17
ag25
ag18
ag5
ag3
ag25
ag7
ag2
ag22
ag23
ag5
ag24
ag18
ag25
ag24
ag12
ag20
ag13
ag2
ag12
ag13
ag21
ag1
ag24
ag22
ag8
ag3
ag1
ag12
ag16
ag8
ag13
ag1
ag13
ag12
ag26
ag13
ag11
ag17
ag20
ag24
ag26
ag26
ag13
ag13
ag8
ag23
ag3
ag7
ag2
ag2
ag8
ag9
ag19
ag16
ag15
ag23
ag6
ag21
ag21
ag25
ag10
ag15
ag24
ag11
ag24
ag13
ag17
ag22
ag6
ag2
ag2
ag9
ag18
ag5
ag10
ag19
ag12
ag21
ag22
ag16
ag17
ag3
ag12
ag11
ag8
ag17
ag13
ag23
ag23
ag6
ag10
ag13
ag24
ag7
ag13
ag3
ag17
ag8
ag13
ag26
ag4
ag8
ag6
ag3
ag4
ag20
ag4
ag25
ag18
ag17
ag17
ag3
ag15
ag2
ag9
ag18
ag15
ag15
ag16
ag9
ag9
ag4
ag2
ag10
ag26
ag21
ag6
ag25
ag2
ag13
ag6
ag10
ag13
ag2
ag22
ag2
ag12
ag4
ag6
ag26
ag16
ag19
ag21
ag25
ag14
ag12
ag6
ag7
ag11
ag17
ag15
ag21
ag18
ag12
ag17
ag12
ag22
ag14
ag7
ag5
ag1
ag16
ag19
ag18
ag10
ag14
ag3
ag24
ag15
ag18
ag13
ag11
ag22
ag6
ag14
ag21
ag15
ag2
ag21
ag24
ag10
ag6
ag23
ag4
ag8
ag7
ag10
ag26
ag13
ag14
ag15
ag21
ag8
ag15
ag3
ag13
ag18
ag8
ag6
ag9
ag1
ag13
ag26
ag17
ag16
ag17
ag19
ag10
ag25
ag5
ag18
ag19
ag24
ag13
ag2
ag18
ag6
ag1
ag24
ag12
ag19
ag9
ag15
ag14
ag17
ag24
ag1
ag12
ag5
ag22
ag5
ag24
ag4
ag7
ag22
ag9
ag25
ag17
ag13
ag10
ag1
ag18
ag22
ag16
ag19
ag15
ag21
ag9
ag25
ag25
ag18
ag7
ag10
ag14
ag9
ag11
ag16
ag22
ag9
ag3
ag16
ag11
ag16
ag3
ag23
ag22
ag24
ag3
ag23
ag23
ag4
ag16
ag3
ag13
ag7
ag10
ag15
ag4
ag5
ag7
ag6
ag20
ag2
ag5
ag24
ag17
ag16
ag22
ag12
ag15
ag16
ag7
ag22
ag8
ag2
ag19
ag11
ag4
ag16
ag21
ag1
ag7
ag17
ag5
ag5
ag24
ag13
ag13
ag14
ag11
ag7
ag24
ag17
ag25
ag10
ag25
ag4
ag13
ag13
ag13
ag21
ag24
ag24
ag15
ag19
ag24
ag11
ag19
ag20
ag23
ag2
ag15
ag13
ag9
ag13
ag5
ag25
ag14
ag22
ag24
ag18
ag3
ag20
ag14
ag11
ag13
ag17
ag21
ag25
ag4
ag10
ag23
ag4
ag5
ag25
ag13
ag1
ag24
ag10
ag9
ag18
ag6
ag13
ag5
ag20
ag4
ag20
ag17
ag4
ag3
ag25
ag4
ag15
ag17
ag22
ag4
ag7
ag22
ag26
ag5
ag11
ag26
ag9
ag13
ag9
ag22
ag18
ag25
ag10
ag13
ag11
ag1
ag2
ag10
ag22
ag26
ag21
ag17
ag14
ag21
ag9
ag21
ag17
ag26
ag5
ag24
ag7
ag2
ag6
ag12
ag16
ag6
ag5
ag10
ag8
ag25
ag14
ag6
ag24
ag12
ag13
ag7
ag1
ag6
ag9
ag15
ag25
ag11
ag3
ag12
ag15
ag23
ag1
ag16
ag21
ag14
ag26
ag6
ag25
ag19
ag26
ag6
ag14
ag8
ag8
ag13
ag7
ag21
ag25
ag13
ag7
ag18
ag15
ag10
ag17
ag24
ag23
ag12
ag5
ag25
ag18
ag3
ag21
ag4
ag9
ag5
ag22
ag26
ag3
ag10
ag16
ag25
ag15
ag16
ag11
ag18
ag13
ag2
ag14
ag19
ag26
ag16
ag4
ag7
ag26
ag11
ag18
ag11
ag20
ag19
ag16
ag25
ag26
ag25
ag13
ag19
ag9
ag4
ag13
ag14
ag17
ag19
ag16
ag10
ag22
ag18
ag17
ag26
ag11
ag17
ag19
ag18
ag9
ag24
ag26
ag12
ag20
ag20
ag9
ag13
ag11
ag20
ag21
ag10
ag18
ag13
ag13
ag24
ag4
ag10
ag25
ag14
ag17
ag9
ag1
ag2
ag21
ag19
ag25
ag4
ag12
ag23
ag12
ag20
ag10
ag4
ag2
ag25
ag14
ag8
ag11
ag19
ag15
ag18
ag19
ag17
ag17
ag14
ag25
ag1
ag17
ag8
ag8
ag4
ag25
ag11
ag25
ag25
ag6
ag5
ag26
ag18
ag2
ag17
ag9
ag12
ag5
ag6
ag20
ag4
ag16
a.